; Function Attrs: mustprogress nofree norecurse nosync nounwind willreturn memory(write, argmem: readwrite, inaccessiblemem: none) uwtable
define noundef i64 @_ZN9syscall_t8sys_exitEmmmmmmm(ptr nocapture noundef nonnull readonly align 8 dereferenceable(176) %0, i64 noundef %1, i64 %2, i64 %3, i64 %4, i64 %5, i64 %6, i64 %7) #5 align 2 {
  %.tr = trunc i64 %1 to i32
  %9 = shl i32 %.tr, 1
  %10 = or disjoint i32 %9, 1
  %11 = getelementptr inbounds i8, ptr %0, i64 56
  %12 = load ptr, ptr %11, align 8
  %13 = getelementptr inbounds i8, ptr %12, i64 168
  store i32 %10, ptr %13, align 8
  ret i64 0
}